
;CodeVisionAVR C Compiler V3.12 Advanced
;(C) Copyright 1998-2014 Pavel Haiduc, HP InfoTech s.r.l.
;http://www.hpinfotech.com

;Build configuration    : Debug
;Chip type              : ATmega2560
;Program type           : Application
;Clock frequency        : 8.000000 MHz
;Memory model           : Small
;Optimize for           : Size
;(s)printf features     : int, width
;(s)scanf features      : int, width
;External RAM size      : 0
;Data Stack size        : 2048 byte(s)
;Heap size              : 0 byte(s)
;Promote 'char' to 'int': Yes
;'char' is unsigned     : Yes
;8 bit enums            : Yes
;Global 'const' stored in FLASH: No
;Enhanced function parameter passing: Yes
;Enhanced core instructions: On
;Automatic register allocation for global variables: Off
;Smart register allocation: Off

	#define _MODEL_SMALL_

	#pragma AVRPART ADMIN PART_NAME ATmega2560
	#pragma AVRPART MEMORY PROG_FLASH 262144
	#pragma AVRPART MEMORY EEPROM 4096
	#pragma AVRPART MEMORY INT_SRAM SIZE 8192
	#pragma AVRPART MEMORY INT_SRAM START_ADDR 0x200

	#define CALL_SUPPORTED 1

	.LISTMAC
	.EQU EERE=0x0
	.EQU EEWE=0x1
	.EQU EEMWE=0x2
	.EQU UDRE=0x5
	.EQU RXC=0x7
	.EQU EECR=0x1F
	.EQU EEDR=0x20
	.EQU EEARL=0x21
	.EQU EEARH=0x22
	.EQU SPSR=0x2D
	.EQU SPDR=0x2E
	.EQU SMCR=0x33
	.EQU MCUSR=0x34
	.EQU MCUCR=0x35
	.EQU WDTCSR=0x60
	.EQU UCSR0A=0xC0
	.EQU UDR0=0xC6
	.EQU RAMPZ=0x3B
	.EQU EIND=0x3C
	.EQU SPL=0x3D
	.EQU SPH=0x3E
	.EQU SREG=0x3F
	.EQU XMCRA=0x74
	.EQU XMCRB=0x75
	.EQU GPIOR0=0x1E

	.DEF R0X0=R0
	.DEF R0X1=R1
	.DEF R0X2=R2
	.DEF R0X3=R3
	.DEF R0X4=R4
	.DEF R0X5=R5
	.DEF R0X6=R6
	.DEF R0X7=R7
	.DEF R0X8=R8
	.DEF R0X9=R9
	.DEF R0XA=R10
	.DEF R0XB=R11
	.DEF R0XC=R12
	.DEF R0XD=R13
	.DEF R0XE=R14
	.DEF R0XF=R15
	.DEF R0X10=R16
	.DEF R0X11=R17
	.DEF R0X12=R18
	.DEF R0X13=R19
	.DEF R0X14=R20
	.DEF R0X15=R21
	.DEF R0X16=R22
	.DEF R0X17=R23
	.DEF R0X18=R24
	.DEF R0X19=R25
	.DEF R0X1A=R26
	.DEF R0X1B=R27
	.DEF R0X1C=R28
	.DEF R0X1D=R29
	.DEF R0X1E=R30
	.DEF R0X1F=R31

	.EQU __SRAM_START=0x0200
	.EQU __SRAM_END=0x21FF
	.EQU __DSTACK_SIZE=0x0800
	.EQU __HEAP_SIZE=0x0000
	.EQU __CLEAR_SRAM_SIZE=__SRAM_END-__SRAM_START+1

	.MACRO __CPD1N
	CPI  R30,LOW(@0)
	LDI  R26,HIGH(@0)
	CPC  R31,R26
	LDI  R26,BYTE3(@0)
	CPC  R22,R26
	LDI  R26,BYTE4(@0)
	CPC  R23,R26
	.ENDM

	.MACRO __CPD2N
	CPI  R26,LOW(@0)
	LDI  R30,HIGH(@0)
	CPC  R27,R30
	LDI  R30,BYTE3(@0)
	CPC  R24,R30
	LDI  R30,BYTE4(@0)
	CPC  R25,R30
	.ENDM

	.MACRO __CPWRR
	CP   R@0,R@2
	CPC  R@1,R@3
	.ENDM

	.MACRO __CPWRN
	CPI  R@0,LOW(@2)
	LDI  R30,HIGH(@2)
	CPC  R@1,R30
	.ENDM

	.MACRO __ADDB1MN
	SUBI R30,LOW(-@0-(@1))
	.ENDM

	.MACRO __ADDB2MN
	SUBI R26,LOW(-@0-(@1))
	.ENDM

	.MACRO __ADDW1MN
	SUBI R30,LOW(-@0-(@1))
	SBCI R31,HIGH(-@0-(@1))
	.ENDM

	.MACRO __ADDW2MN
	SUBI R26,LOW(-@0-(@1))
	SBCI R27,HIGH(-@0-(@1))
	.ENDM

	.MACRO __ADDW1FN
	SUBI R30,LOW(-2*@0-(@1))
	SBCI R31,HIGH(-2*@0-(@1))
	.ENDM

	.MACRO __ADDD1FN
	SUBI R30,LOW(-2*@0-(@1))
	SBCI R31,HIGH(-2*@0-(@1))
	SBCI R22,BYTE3(-2*@0-(@1))
	.ENDM

	.MACRO __ADDD1N
	SUBI R30,LOW(-@0)
	SBCI R31,HIGH(-@0)
	SBCI R22,BYTE3(-@0)
	SBCI R23,BYTE4(-@0)
	.ENDM

	.MACRO __ADDD2N
	SUBI R26,LOW(-@0)
	SBCI R27,HIGH(-@0)
	SBCI R24,BYTE3(-@0)
	SBCI R25,BYTE4(-@0)
	.ENDM

	.MACRO __SUBD1N
	SUBI R30,LOW(@0)
	SBCI R31,HIGH(@0)
	SBCI R22,BYTE3(@0)
	SBCI R23,BYTE4(@0)
	.ENDM

	.MACRO __SUBD2N
	SUBI R26,LOW(@0)
	SBCI R27,HIGH(@0)
	SBCI R24,BYTE3(@0)
	SBCI R25,BYTE4(@0)
	.ENDM

	.MACRO __ANDBMNN
	LDS  R30,@0+(@1)
	ANDI R30,LOW(@2)
	STS  @0+(@1),R30
	.ENDM

	.MACRO __ANDWMNN
	LDS  R30,@0+(@1)
	ANDI R30,LOW(@2)
	STS  @0+(@1),R30
	LDS  R30,@0+(@1)+1
	ANDI R30,HIGH(@2)
	STS  @0+(@1)+1,R30
	.ENDM

	.MACRO __ANDD1N
	ANDI R30,LOW(@0)
	ANDI R31,HIGH(@0)
	ANDI R22,BYTE3(@0)
	ANDI R23,BYTE4(@0)
	.ENDM

	.MACRO __ANDD2N
	ANDI R26,LOW(@0)
	ANDI R27,HIGH(@0)
	ANDI R24,BYTE3(@0)
	ANDI R25,BYTE4(@0)
	.ENDM

	.MACRO __ORBMNN
	LDS  R30,@0+(@1)
	ORI  R30,LOW(@2)
	STS  @0+(@1),R30
	.ENDM

	.MACRO __ORWMNN
	LDS  R30,@0+(@1)
	ORI  R30,LOW(@2)
	STS  @0+(@1),R30
	LDS  R30,@0+(@1)+1
	ORI  R30,HIGH(@2)
	STS  @0+(@1)+1,R30
	.ENDM

	.MACRO __ORD1N
	ORI  R30,LOW(@0)
	ORI  R31,HIGH(@0)
	ORI  R22,BYTE3(@0)
	ORI  R23,BYTE4(@0)
	.ENDM

	.MACRO __ORD2N
	ORI  R26,LOW(@0)
	ORI  R27,HIGH(@0)
	ORI  R24,BYTE3(@0)
	ORI  R25,BYTE4(@0)
	.ENDM

	.MACRO __DELAY_USB
	LDI  R24,LOW(@0)
__DELAY_USB_LOOP:
	DEC  R24
	BRNE __DELAY_USB_LOOP
	.ENDM

	.MACRO __DELAY_USW
	LDI  R24,LOW(@0)
	LDI  R25,HIGH(@0)
__DELAY_USW_LOOP:
	SBIW R24,1
	BRNE __DELAY_USW_LOOP
	.ENDM

	.MACRO __GETD1S
	LDD  R30,Y+@0
	LDD  R31,Y+@0+1
	LDD  R22,Y+@0+2
	LDD  R23,Y+@0+3
	.ENDM

	.MACRO __GETD2S
	LDD  R26,Y+@0
	LDD  R27,Y+@0+1
	LDD  R24,Y+@0+2
	LDD  R25,Y+@0+3
	.ENDM

	.MACRO __PUTD1S
	STD  Y+@0,R30
	STD  Y+@0+1,R31
	STD  Y+@0+2,R22
	STD  Y+@0+3,R23
	.ENDM

	.MACRO __PUTD2S
	STD  Y+@0,R26
	STD  Y+@0+1,R27
	STD  Y+@0+2,R24
	STD  Y+@0+3,R25
	.ENDM

	.MACRO __PUTDZ2
	STD  Z+@0,R26
	STD  Z+@0+1,R27
	STD  Z+@0+2,R24
	STD  Z+@0+3,R25
	.ENDM

	.MACRO __CLRD1S
	STD  Y+@0,R30
	STD  Y+@0+1,R30
	STD  Y+@0+2,R30
	STD  Y+@0+3,R30
	.ENDM

	.MACRO __POINTB1MN
	LDI  R30,LOW(@0+(@1))
	.ENDM

	.MACRO __POINTW1MN
	LDI  R30,LOW(@0+(@1))
	LDI  R31,HIGH(@0+(@1))
	.ENDM

	.MACRO __POINTD1M
	LDI  R30,LOW(@0)
	LDI  R31,HIGH(@0)
	LDI  R22,BYTE3(@0)
	LDI  R23,BYTE4(@0)
	.ENDM

	.MACRO __POINTW1FN
	LDI  R30,LOW(2*@0+(@1))
	LDI  R31,HIGH(2*@0+(@1))
	.ENDM

	.MACRO __POINTD1FN
	LDI  R30,LOW(2*@0+(@1))
	LDI  R31,HIGH(2*@0+(@1))
	LDI  R22,BYTE3(2*@0+(@1))
	LDI  R23,BYTE4(2*@0+(@1))
	.ENDM

	.MACRO __POINTB2MN
	LDI  R26,LOW(@0+(@1))
	.ENDM

	.MACRO __POINTW2MN
	LDI  R26,LOW(@0+(@1))
	LDI  R27,HIGH(@0+(@1))
	.ENDM

	.MACRO __POINTW2FN
	LDI  R26,LOW(2*@0+(@1))
	LDI  R27,HIGH(2*@0+(@1))
	.ENDM

	.MACRO __POINTD2FN
	LDI  R26,LOW(2*@0+(@1))
	LDI  R27,HIGH(2*@0+(@1))
	LDI  R24,BYTE3(2*@0+(@1))
	LDI  R25,BYTE4(2*@0+(@1))
	.ENDM

	.MACRO __POINTBRM
	LDI  R@0,LOW(@1)
	.ENDM

	.MACRO __POINTWRM
	LDI  R@0,LOW(@2)
	LDI  R@1,HIGH(@2)
	.ENDM

	.MACRO __POINTBRMN
	LDI  R@0,LOW(@1+(@2))
	.ENDM

	.MACRO __POINTWRMN
	LDI  R@0,LOW(@2+(@3))
	LDI  R@1,HIGH(@2+(@3))
	.ENDM

	.MACRO __POINTWRFN
	LDI  R@0,LOW(@2*2+(@3))
	LDI  R@1,HIGH(@2*2+(@3))
	.ENDM

	.MACRO __GETD1N
	LDI  R30,LOW(@0)
	LDI  R31,HIGH(@0)
	LDI  R22,BYTE3(@0)
	LDI  R23,BYTE4(@0)
	.ENDM

	.MACRO __GETD2N
	LDI  R26,LOW(@0)
	LDI  R27,HIGH(@0)
	LDI  R24,BYTE3(@0)
	LDI  R25,BYTE4(@0)
	.ENDM

	.MACRO __GETB1MN
	LDS  R30,@0+(@1)
	.ENDM

	.MACRO __GETB1HMN
	LDS  R31,@0+(@1)
	.ENDM

	.MACRO __GETW1MN
	LDS  R30,@0+(@1)
	LDS  R31,@0+(@1)+1
	.ENDM

	.MACRO __GETD1MN
	LDS  R30,@0+(@1)
	LDS  R31,@0+(@1)+1
	LDS  R22,@0+(@1)+2
	LDS  R23,@0+(@1)+3
	.ENDM

	.MACRO __GETBRMN
	LDS  R@0,@1+(@2)
	.ENDM

	.MACRO __GETWRMN
	LDS  R@0,@2+(@3)
	LDS  R@1,@2+(@3)+1
	.ENDM

	.MACRO __GETWRZ
	LDD  R@0,Z+@2
	LDD  R@1,Z+@2+1
	.ENDM

	.MACRO __GETD2Z
	LDD  R26,Z+@0
	LDD  R27,Z+@0+1
	LDD  R24,Z+@0+2
	LDD  R25,Z+@0+3
	.ENDM

	.MACRO __GETB2MN
	LDS  R26,@0+(@1)
	.ENDM

	.MACRO __GETW2MN
	LDS  R26,@0+(@1)
	LDS  R27,@0+(@1)+1
	.ENDM

	.MACRO __GETD2MN
	LDS  R26,@0+(@1)
	LDS  R27,@0+(@1)+1
	LDS  R24,@0+(@1)+2
	LDS  R25,@0+(@1)+3
	.ENDM

	.MACRO __PUTB1MN
	STS  @0+(@1),R30
	.ENDM

	.MACRO __PUTW1MN
	STS  @0+(@1),R30
	STS  @0+(@1)+1,R31
	.ENDM

	.MACRO __PUTD1MN
	STS  @0+(@1),R30
	STS  @0+(@1)+1,R31
	STS  @0+(@1)+2,R22
	STS  @0+(@1)+3,R23
	.ENDM

	.MACRO __PUTB1EN
	LDI  R26,LOW(@0+(@1))
	LDI  R27,HIGH(@0+(@1))
	CALL __EEPROMWRB
	.ENDM

	.MACRO __PUTW1EN
	LDI  R26,LOW(@0+(@1))
	LDI  R27,HIGH(@0+(@1))
	CALL __EEPROMWRW
	.ENDM

	.MACRO __PUTD1EN
	LDI  R26,LOW(@0+(@1))
	LDI  R27,HIGH(@0+(@1))
	CALL __EEPROMWRD
	.ENDM

	.MACRO __PUTBR0MN
	STS  @0+(@1),R0
	.ENDM

	.MACRO __PUTBMRN
	STS  @0+(@1),R@2
	.ENDM

	.MACRO __PUTWMRN
	STS  @0+(@1),R@2
	STS  @0+(@1)+1,R@3
	.ENDM

	.MACRO __PUTBZR
	STD  Z+@1,R@0
	.ENDM

	.MACRO __PUTWZR
	STD  Z+@2,R@0
	STD  Z+@2+1,R@1
	.ENDM

	.MACRO __GETW1R
	MOV  R30,R@0
	MOV  R31,R@1
	.ENDM

	.MACRO __GETW2R
	MOV  R26,R@0
	MOV  R27,R@1
	.ENDM

	.MACRO __GETWRN
	LDI  R@0,LOW(@2)
	LDI  R@1,HIGH(@2)
	.ENDM

	.MACRO __PUTW1R
	MOV  R@0,R30
	MOV  R@1,R31
	.ENDM

	.MACRO __PUTW2R
	MOV  R@0,R26
	MOV  R@1,R27
	.ENDM

	.MACRO __ADDWRN
	SUBI R@0,LOW(-@2)
	SBCI R@1,HIGH(-@2)
	.ENDM

	.MACRO __ADDWRR
	ADD  R@0,R@2
	ADC  R@1,R@3
	.ENDM

	.MACRO __SUBWRN
	SUBI R@0,LOW(@2)
	SBCI R@1,HIGH(@2)
	.ENDM

	.MACRO __SUBWRR
	SUB  R@0,R@2
	SBC  R@1,R@3
	.ENDM

	.MACRO __ANDWRN
	ANDI R@0,LOW(@2)
	ANDI R@1,HIGH(@2)
	.ENDM

	.MACRO __ANDWRR
	AND  R@0,R@2
	AND  R@1,R@3
	.ENDM

	.MACRO __ORWRN
	ORI  R@0,LOW(@2)
	ORI  R@1,HIGH(@2)
	.ENDM

	.MACRO __ORWRR
	OR   R@0,R@2
	OR   R@1,R@3
	.ENDM

	.MACRO __EORWRR
	EOR  R@0,R@2
	EOR  R@1,R@3
	.ENDM

	.MACRO __GETWRS
	LDD  R@0,Y+@2
	LDD  R@1,Y+@2+1
	.ENDM

	.MACRO __PUTBSR
	STD  Y+@1,R@0
	.ENDM

	.MACRO __PUTWSR
	STD  Y+@2,R@0
	STD  Y+@2+1,R@1
	.ENDM

	.MACRO __MOVEWRR
	MOV  R@0,R@2
	MOV  R@1,R@3
	.ENDM

	.MACRO __INWR
	IN   R@0,@2
	IN   R@1,@2+1
	.ENDM

	.MACRO __OUTWR
	OUT  @2+1,R@1
	OUT  @2,R@0
	.ENDM

	.MACRO __CALL1MN
	LDS  R30,@0+(@1)
	LDS  R31,@0+(@1)+1
	ICALL
	.ENDM

	.MACRO __CALL1FN
	LDI  R30,LOW(2*@0+(@1))
	LDI  R31,HIGH(2*@0+(@1))
	CALL __GETW1PF
	ICALL
	.ENDM

	.MACRO __CALL2EN
	PUSH R26
	PUSH R27
	LDI  R26,LOW(@0+(@1))
	LDI  R27,HIGH(@0+(@1))
	CALL __EEPROMRDW
	POP  R27
	POP  R26
	ICALL
	.ENDM

	.MACRO __CALL2EX
	SUBI R26,LOW(-@0)
	SBCI R27,HIGH(-@0)
	CALL __EEPROMRDD
	ICALL
	.ENDM

	.MACRO __GETW1STACK
	IN   R30,SPL
	IN   R31,SPH
	ADIW R30,@0+1
	LD   R0,Z+
	LD   R31,Z
	MOV  R30,R0
	.ENDM

	.MACRO __GETD1STACK
	IN   R30,SPL
	IN   R31,SPH
	ADIW R30,@0+1
	LD   R0,Z+
	LD   R1,Z+
	LD   R22,Z
	MOVW R30,R0
	.ENDM

	.MACRO __NBST
	BST  R@0,@1
	IN   R30,SREG
	LDI  R31,0x40
	EOR  R30,R31
	OUT  SREG,R30
	.ENDM


	.MACRO __PUTB1SN
	LDD  R26,Y+@0
	LDD  R27,Y+@0+1
	SUBI R26,LOW(-@1)
	SBCI R27,HIGH(-@1)
	ST   X,R30
	.ENDM

	.MACRO __PUTW1SN
	LDD  R26,Y+@0
	LDD  R27,Y+@0+1
	SUBI R26,LOW(-@1)
	SBCI R27,HIGH(-@1)
	ST   X+,R30
	ST   X,R31
	.ENDM

	.MACRO __PUTD1SN
	LDD  R26,Y+@0
	LDD  R27,Y+@0+1
	SUBI R26,LOW(-@1)
	SBCI R27,HIGH(-@1)
	CALL __PUTDP1
	.ENDM

	.MACRO __PUTB1SNS
	LDD  R26,Y+@0
	LDD  R27,Y+@0+1
	ADIW R26,@1
	ST   X,R30
	.ENDM

	.MACRO __PUTW1SNS
	LDD  R26,Y+@0
	LDD  R27,Y+@0+1
	ADIW R26,@1
	ST   X+,R30
	ST   X,R31
	.ENDM

	.MACRO __PUTD1SNS
	LDD  R26,Y+@0
	LDD  R27,Y+@0+1
	ADIW R26,@1
	CALL __PUTDP1
	.ENDM

	.MACRO __PUTB1PMN
	LDS  R26,@0
	LDS  R27,@0+1
	SUBI R26,LOW(-@1)
	SBCI R27,HIGH(-@1)
	ST   X,R30
	.ENDM

	.MACRO __PUTW1PMN
	LDS  R26,@0
	LDS  R27,@0+1
	SUBI R26,LOW(-@1)
	SBCI R27,HIGH(-@1)
	ST   X+,R30
	ST   X,R31
	.ENDM

	.MACRO __PUTD1PMN
	LDS  R26,@0
	LDS  R27,@0+1
	SUBI R26,LOW(-@1)
	SBCI R27,HIGH(-@1)
	CALL __PUTDP1
	.ENDM

	.MACRO __PUTB1PMNS
	LDS  R26,@0
	LDS  R27,@0+1
	ADIW R26,@1
	ST   X,R30
	.ENDM

	.MACRO __PUTW1PMNS
	LDS  R26,@0
	LDS  R27,@0+1
	ADIW R26,@1
	ST   X+,R30
	ST   X,R31
	.ENDM

	.MACRO __PUTD1PMNS
	LDS  R26,@0
	LDS  R27,@0+1
	ADIW R26,@1
	CALL __PUTDP1
	.ENDM

	.MACRO __PUTB1RN
	MOVW R26,R@0
	SUBI R26,LOW(-@1)
	SBCI R27,HIGH(-@1)
	ST   X,R30
	.ENDM

	.MACRO __PUTW1RN
	MOVW R26,R@0
	SUBI R26,LOW(-@1)
	SBCI R27,HIGH(-@1)
	ST   X+,R30
	ST   X,R31
	.ENDM

	.MACRO __PUTD1RN
	MOVW R26,R@0
	SUBI R26,LOW(-@1)
	SBCI R27,HIGH(-@1)
	CALL __PUTDP1
	.ENDM

	.MACRO __PUTB1RNS
	MOVW R26,R@0
	ADIW R26,@1
	ST   X,R30
	.ENDM

	.MACRO __PUTW1RNS
	MOVW R26,R@0
	ADIW R26,@1
	ST   X+,R30
	ST   X,R31
	.ENDM

	.MACRO __PUTD1RNS
	MOVW R26,R@0
	ADIW R26,@1
	CALL __PUTDP1
	.ENDM

	.MACRO __PUTB1RON
	MOV  R26,R@0
	MOV  R27,R@1
	SUBI R26,LOW(-@2)
	SBCI R27,HIGH(-@2)
	ST   X,R30
	.ENDM

	.MACRO __PUTW1RON
	MOV  R26,R@0
	MOV  R27,R@1
	SUBI R26,LOW(-@2)
	SBCI R27,HIGH(-@2)
	ST   X+,R30
	ST   X,R31
	.ENDM

	.MACRO __PUTD1RON
	MOV  R26,R@0
	MOV  R27,R@1
	SUBI R26,LOW(-@2)
	SBCI R27,HIGH(-@2)
	CALL __PUTDP1
	.ENDM

	.MACRO __PUTB1RONS
	MOV  R26,R@0
	MOV  R27,R@1
	ADIW R26,@2
	ST   X,R30
	.ENDM

	.MACRO __PUTW1RONS
	MOV  R26,R@0
	MOV  R27,R@1
	ADIW R26,@2
	ST   X+,R30
	ST   X,R31
	.ENDM

	.MACRO __PUTD1RONS
	MOV  R26,R@0
	MOV  R27,R@1
	ADIW R26,@2
	CALL __PUTDP1
	.ENDM


	.MACRO __GETB1SX
	MOVW R30,R28
	SUBI R30,LOW(-@0)
	SBCI R31,HIGH(-@0)
	LD   R30,Z
	.ENDM

	.MACRO __GETB1HSX
	MOVW R30,R28
	SUBI R30,LOW(-@0)
	SBCI R31,HIGH(-@0)
	LD   R31,Z
	.ENDM

	.MACRO __GETW1SX
	MOVW R30,R28
	SUBI R30,LOW(-@0)
	SBCI R31,HIGH(-@0)
	LD   R0,Z+
	LD   R31,Z
	MOV  R30,R0
	.ENDM

	.MACRO __GETD1SX
	MOVW R30,R28
	SUBI R30,LOW(-@0)
	SBCI R31,HIGH(-@0)
	LD   R0,Z+
	LD   R1,Z+
	LD   R22,Z+
	LD   R23,Z
	MOVW R30,R0
	.ENDM

	.MACRO __GETB2SX
	MOVW R26,R28
	SUBI R26,LOW(-@0)
	SBCI R27,HIGH(-@0)
	LD   R26,X
	.ENDM

	.MACRO __GETW2SX
	MOVW R26,R28
	SUBI R26,LOW(-@0)
	SBCI R27,HIGH(-@0)
	LD   R0,X+
	LD   R27,X
	MOV  R26,R0
	.ENDM

	.MACRO __GETD2SX
	MOVW R26,R28
	SUBI R26,LOW(-@0)
	SBCI R27,HIGH(-@0)
	LD   R0,X+
	LD   R1,X+
	LD   R24,X+
	LD   R25,X
	MOVW R26,R0
	.ENDM

	.MACRO __GETBRSX
	MOVW R30,R28
	SUBI R30,LOW(-@1)
	SBCI R31,HIGH(-@1)
	LD   R@0,Z
	.ENDM

	.MACRO __GETWRSX
	MOVW R30,R28
	SUBI R30,LOW(-@2)
	SBCI R31,HIGH(-@2)
	LD   R@0,Z+
	LD   R@1,Z
	.ENDM

	.MACRO __GETBRSX2
	MOVW R26,R28
	SUBI R26,LOW(-@1)
	SBCI R27,HIGH(-@1)
	LD   R@0,X
	.ENDM

	.MACRO __GETWRSX2
	MOVW R26,R28
	SUBI R26,LOW(-@2)
	SBCI R27,HIGH(-@2)
	LD   R@0,X+
	LD   R@1,X
	.ENDM

	.MACRO __LSLW8SX
	MOVW R30,R28
	SUBI R30,LOW(-@0)
	SBCI R31,HIGH(-@0)
	LD   R31,Z
	CLR  R30
	.ENDM

	.MACRO __PUTB1SX
	MOVW R26,R28
	SUBI R26,LOW(-@0)
	SBCI R27,HIGH(-@0)
	ST   X,R30
	.ENDM

	.MACRO __PUTW1SX
	MOVW R26,R28
	SUBI R26,LOW(-@0)
	SBCI R27,HIGH(-@0)
	ST   X+,R30
	ST   X,R31
	.ENDM

	.MACRO __PUTD1SX
	MOVW R26,R28
	SUBI R26,LOW(-@0)
	SBCI R27,HIGH(-@0)
	ST   X+,R30
	ST   X+,R31
	ST   X+,R22
	ST   X,R23
	.ENDM

	.MACRO __CLRW1SX
	MOVW R26,R28
	SUBI R26,LOW(-@0)
	SBCI R27,HIGH(-@0)
	ST   X+,R30
	ST   X,R30
	.ENDM

	.MACRO __CLRD1SX
	MOVW R26,R28
	SUBI R26,LOW(-@0)
	SBCI R27,HIGH(-@0)
	ST   X+,R30
	ST   X+,R30
	ST   X+,R30
	ST   X,R30
	.ENDM

	.MACRO __PUTB2SX
	MOVW R30,R28
	SUBI R30,LOW(-@0)
	SBCI R31,HIGH(-@0)
	ST   Z,R26
	.ENDM

	.MACRO __PUTW2SX
	MOVW R30,R28
	SUBI R30,LOW(-@0)
	SBCI R31,HIGH(-@0)
	ST   Z+,R26
	ST   Z,R27
	.ENDM

	.MACRO __PUTD2SX
	MOVW R30,R28
	SUBI R30,LOW(-@0)
	SBCI R31,HIGH(-@0)
	ST   Z+,R26
	ST   Z+,R27
	ST   Z+,R24
	ST   Z,R25
	.ENDM

	.MACRO __PUTBSRX
	MOVW R30,R28
	SUBI R30,LOW(-@1)
	SBCI R31,HIGH(-@1)
	ST   Z,R@0
	.ENDM

	.MACRO __PUTWSRX
	MOVW R30,R28
	SUBI R30,LOW(-@2)
	SBCI R31,HIGH(-@2)
	ST   Z+,R@0
	ST   Z,R@1
	.ENDM

	.MACRO __PUTB1SNX
	MOVW R26,R28
	SUBI R26,LOW(-@0)
	SBCI R27,HIGH(-@0)
	LD   R0,X+
	LD   R27,X
	MOV  R26,R0
	SUBI R26,LOW(-@1)
	SBCI R27,HIGH(-@1)
	ST   X,R30
	.ENDM

	.MACRO __PUTW1SNX
	MOVW R26,R28
	SUBI R26,LOW(-@0)
	SBCI R27,HIGH(-@0)
	LD   R0,X+
	LD   R27,X
	MOV  R26,R0
	SUBI R26,LOW(-@1)
	SBCI R27,HIGH(-@1)
	ST   X+,R30
	ST   X,R31
	.ENDM

	.MACRO __PUTD1SNX
	MOVW R26,R28
	SUBI R26,LOW(-@0)
	SBCI R27,HIGH(-@0)
	LD   R0,X+
	LD   R27,X
	MOV  R26,R0
	SUBI R26,LOW(-@1)
	SBCI R27,HIGH(-@1)
	ST   X+,R30
	ST   X+,R31
	ST   X+,R22
	ST   X,R23
	.ENDM

	.MACRO __MULBRR
	MULS R@0,R@1
	MOVW R30,R0
	.ENDM

	.MACRO __MULBRRU
	MUL  R@0,R@1
	MOVW R30,R0
	.ENDM

	.MACRO __MULBRR0
	MULS R@0,R@1
	.ENDM

	.MACRO __MULBRRU0
	MUL  R@0,R@1
	.ENDM

	.MACRO __MULBNWRU
	LDI  R26,@2
	MUL  R26,R@0
	MOVW R30,R0
	MUL  R26,R@1
	ADD  R31,R0
	.ENDM

;GPIOR0 INITIALIZATION VALUE
	.EQU __GPIOR0_INIT=0x00

	.CSEG
	.ORG 0x00

;START OF CODE MARKER
__START_OF_CODE:

;INTERRUPT VECTORS
	JMP  __RESET
	JMP  0x00
	JMP  0x00
	JMP  0x00
	JMP  0x00
	JMP  0x00
	JMP  0x00
	JMP  0x00
	JMP  0x00
	JMP  0x00
	JMP  0x00
	JMP  0x00
	JMP  0x00
	JMP  0x00
	JMP  0x00
	JMP  0x00
	JMP  0x00
	JMP  0x00
	JMP  0x00
	JMP  0x00
	JMP  0x00
	JMP  0x00
	JMP  0x00
	JMP  0x00
	JMP  0x00
	JMP  0x00
	JMP  0x00
	JMP  0x00
	JMP  0x00
	JMP  0x00
	JMP  0x00
	JMP  0x00
	JMP  0x00
	JMP  0x00
	JMP  0x00
	JMP  0x00
	JMP  0x00
	JMP  0x00
	JMP  0x00
	JMP  0x00
	JMP  0x00
	JMP  0x00
	JMP  0x00
	JMP  0x00
	JMP  0x00
	JMP  0x00
	JMP  0x00
	JMP  0x00
	JMP  0x00
	JMP  0x00
	JMP  0x00
	JMP  0x00
	JMP  0x00
	JMP  0x00
	JMP  0x00
	JMP  0x00
	JMP  0x00

_0x3:
	.DB  0x3,0x3,0x3,0x2,0x2,0xC,0x0,0x8
	.DB  0x0,0x1,0x0,0x6
_0x22:
	.DB  0x0,0x0,0xC8,0x43

__GLOBAL_INI_TBL:
_0xFFFFFFFF:
	.DW  0

#define __GLOBAL_INI_TBL_PRESENT 1

__RESET:
	CLI
	CLR  R30
	OUT  EECR,R30

;INTERRUPT VECTORS ARE PLACED
;AT THE START OF FLASH
	LDI  R31,1
	OUT  MCUCR,R31
	OUT  MCUCR,R30
	STS  XMCRA,R30
	STS  XMCRB,R30

;CLEAR R2-R14
	LDI  R24,(14-2)+1
	LDI  R26,2
	CLR  R27
__CLEAR_REG:
	ST   X+,R30
	DEC  R24
	BRNE __CLEAR_REG

;CLEAR SRAM
	LDI  R24,LOW(__CLEAR_SRAM_SIZE)
	LDI  R25,HIGH(__CLEAR_SRAM_SIZE)
	LDI  R26,LOW(__SRAM_START)
	LDI  R27,HIGH(__SRAM_START)
__CLEAR_SRAM:
	ST   X+,R30
	SBIW R24,1
	BRNE __CLEAR_SRAM

;GLOBAL VARIABLES INITIALIZATION
	LDI  R30,LOW(__GLOBAL_INI_TBL*2)
	LDI  R31,HIGH(__GLOBAL_INI_TBL*2)
__GLOBAL_INI_NEXT:
	LPM  R24,Z+
	LPM  R25,Z+
	SBIW R24,0
	BREQ __GLOBAL_INI_END
	LPM  R26,Z+
	LPM  R27,Z+
	LPM  R0,Z+
	LPM  R1,Z+
	MOVW R22,R30
	MOVW R30,R0
__GLOBAL_INI_LOOP:
	LPM  R0,Z+
	ST   X+,R0
	SBIW R24,1
	BRNE __GLOBAL_INI_LOOP
	MOVW R30,R22
	RJMP __GLOBAL_INI_NEXT
__GLOBAL_INI_END:

	OUT  RAMPZ,R24

	OUT  EIND,R24

;GPIOR0 INITIALIZATION
	LDI  R30,__GPIOR0_INIT
	OUT  GPIOR0,R30

;HARDWARE STACK POINTER INITIALIZATION
	LDI  R30,LOW(__SRAM_END-__HEAP_SIZE)
	OUT  SPL,R30
	LDI  R30,HIGH(__SRAM_END-__HEAP_SIZE)
	OUT  SPH,R30

;DATA STACK POINTER INITIALIZATION
	LDI  R28,LOW(__SRAM_START+__DSTACK_SIZE)
	LDI  R29,HIGH(__SRAM_START+__DSTACK_SIZE)

	JMP  _main

	.ESEG
	.ORG 0

	.DSEG
	.ORG 0xA00

	.CSEG
;/*
; * teclado.c
; *
; * Created: 27/05/2021 09:11:21 a. m.
; * Author: ManuelNeri
; */
;#asm
    .equ __lcd_port=0x02
    .equ __lcd_EN = 1
    .equ __lcd_RS = 0
    .equ __lcd_D4 = 2
    .equ __lcd_D5 = 3
    .equ __lcd_D6 = 4
    .equ __lcd_D7 = 5
; 0000 000F #endasm
;
;#asm
    .equ __keypad_port = 0x08
    .equ __keypad_R1 = 3
    .equ __keypad_R2 = 2
    .equ __keypad_R3 = 1
    .equ __keypad_R4 = 0
    .equ __keypad_C1 = 4
    .equ __keypad_C2 = 5
    .equ __keypad_C3 = 6
; 0000 001A #endasm
;
;#include <io.h>
	#ifndef __SLEEP_DEFINED__
	#define __SLEEP_DEFINED__
	.EQU __se_bit=0x01
	.EQU __sm_mask=0x0E
	.EQU __sm_powerdown=0x04
	.EQU __sm_powersave=0x06
	.EQU __sm_standby=0x0C
	.EQU __sm_ext_standby=0x0E
	.EQU __sm_adc_noise_red=0x02
	.SET power_ctrl_reg=smcr
	#endif
;#include <display.h>

	.CSEG
_SetupLCD:
; .FSTART _SetupLCD
	SBIW R28,12
	LDI  R24,12
	LDI  R26,LOW(0)
	LDI  R27,HIGH(0)
	LDI  R30,LOW(_0x3*2)
	LDI  R31,HIGH(_0x3*2)
	CALL __INITLOCB
	ST   -Y,R16
;	TableSetup -> Y+1
;	i -> R16
; 0000 001D     SBI __lcd_port-1,__lcd_EN
    SBI __lcd_port-1,__lcd_EN
    SBI __lcd_port-1,__lcd_RS
    SBI __lcd_port-1,__lcd_D4
    SBI __lcd_port-1,__lcd_D5
    SBI __lcd_port-1,__lcd_D6
    SBI __lcd_port-1,__lcd_D7
	LDI  R26,LOW(50)
	LDI  R27,0
	CALL _delay_ms
	LDI  R16,LOW(0)
_0x5:
	CPI  R16,12
	BRSH _0x6
	CALL SUBOPT_0x0
	MOV  R30,R16
	LDI  R31,0
	MOVW R26,R28
	ADIW R26,1
	ADD  R26,R30
	ADC  R27,R31
	LD   R26,X
	CALL SUBOPT_0x1
	SUBI R16,-1
	RJMP _0x5
_0x6:
	LDI  R30,LOW(12)
	STS  _cursor,R30
	LDS  R26,_cursor
	RCALL _WriteComandLCD
	LDD  R16,Y+0
	ADIW R28,13
	RET
; .FEND
_PulseEn:
; .FSTART _PulseEn
    SBI __lcd_port,__lcd_EN  // EN=1;
    CBI __lcd_port,__lcd_EN // EN=0;
	RET
; .FEND
_SendDataBitsLCD:
; .FSTART _SendDataBitsLCD
	ST   -Y,R26
;	dato -> Y+0
	LD   R30,Y
	ANDI R30,LOW(0x8)
	BREQ _0x7
	SBI __lcd_port,__lcd_D7
	RJMP _0x8
_0x7:
	CBI __lcd_port,__lcd_D7
_0x8:
	LD   R30,Y
	ANDI R30,LOW(0x4)
	BREQ _0x9
	SBI __lcd_port,__lcd_D6
	RJMP _0xA
_0x9:
	CBI __lcd_port,__lcd_D6
_0xA:
	LD   R30,Y
	ANDI R30,LOW(0x2)
	BREQ _0xB
	SBI __lcd_port,__lcd_D5
	RJMP _0xC
_0xB:
	CBI __lcd_port,__lcd_D5
_0xC:
	LD   R30,Y
	ANDI R30,LOW(0x1)
	BREQ _0xD
	SBI __lcd_port,__lcd_D4
	RJMP _0xE
_0xD:
	CBI __lcd_port,__lcd_D4
_0xE:
	ADIW R28,1
	RET
; .FEND
_WriteComandLCD:
; .FSTART _WriteComandLCD
	ST   -Y,R26
	ST   -Y,R16
;	Comando -> Y+1
;	tempComando -> R16
	CBI __lcd_port,__lcd_RS
	CALL SUBOPT_0x0
	CALL SUBOPT_0x2
	CALL SUBOPT_0x3
	RCALL _PulseEn
	LDD  R16,Y+0
	RJMP _0x2000001
; .FEND
_CharLCD:
; .FSTART _CharLCD
	ST   -Y,R26
	ST   -Y,R16
;	dato -> Y+1
;	tempdato -> R16
	SBI __lcd_port,__lcd_RS
	CALL SUBOPT_0x0
	CALL SUBOPT_0x2
	CALL SUBOPT_0x3
	RCALL _PulseEn
	LDD  R16,Y+0
	RJMP _0x2000001
; .FEND
;	i -> R16
;	tiempo -> Y+1
;	i -> R16
;	Mensaje -> Y+1
;	i -> R16
_MoveCursor:
; .FSTART _MoveCursor
	ST   -Y,R26
;	x -> Y+1
;	y -> Y+0
	LD   R30,Y
	LDI  R31,0
	SBIW R30,0
	BRNE _0x1B
	LDD  R26,Y+1
	SUBI R26,-LOW(128)
	RJMP _0x2D
_0x1B:
	CPI  R30,LOW(0x1)
	LDI  R26,HIGH(0x1)
	CPC  R31,R26
	BRNE _0x1C
	LDD  R26,Y+1
	SUBI R26,-LOW(192)
	RJMP _0x2D
_0x1C:
	CPI  R30,LOW(0x2)
	LDI  R26,HIGH(0x2)
	CPC  R31,R26
	BRNE _0x1D
	LDD  R26,Y+1
	SUBI R26,-LOW(148)
	RJMP _0x2D
_0x1D:
	CPI  R30,LOW(0x3)
	LDI  R26,HIGH(0x3)
	CPC  R31,R26
	BRNE _0x1A
	LDD  R26,Y+1
	SUBI R26,-LOW(212)
_0x2D:
	RCALL _WriteComandLCD
_0x1A:
_0x2000001:
	ADIW R28,2
	RET
; .FEND
;	NoCaracter -> Y+3
;	datos -> Y+1
;	i -> R16
;#include <delay.h>
;
;
;float Nota=400.0;

	.DSEG
;
;void tono (float frec)
; 0000 0024 {

	.CSEG
_tono:
; .FSTART _tono
; 0000 0025     float Cuentas;
; 0000 0026     unsigned int CuentasEnt;
; 0000 0027     DDRB.5=1; //Salida Bocina
	CALL __PUTPARD2
	SBIW R28,4
	ST   -Y,R17
	ST   -Y,R16
;	frec -> Y+6
;	Cuentas -> Y+2
;	CuentasEnt -> R16,R17
	SBI  0x4,5
; 0000 0028     Cuentas=500000.0/frec;
	__GETD1S 6
	__GETD2N 0x48F42400
	CALL __DIVF21
	__PUTD1S 2
; 0000 0029     CuentasEnt=Cuentas;
	CALL __CFD1U
	MOVW R16,R30
; 0000 002A     if ((Cuentas-CuentasEnt)>=0.5)
	__GETD2S 2
	CLR  R22
	CLR  R23
	CALL __CDF1
	CALL __SWAPD12
	CALL __SUBF12
	MOVW R26,R30
	MOVW R24,R22
	__GETD1N 0x3F000000
	CALL __CMPF12
	BRLO _0x25
; 0000 002B         CuentasEnt++;
	__ADDWRN 16,17,1
; 0000 002C     TCCR1A=0x40;   //Modo de CTC
_0x25:
	LDI  R30,LOW(64)
	STS  128,R30
; 0000 002D     TCCR1B=0x09;   //Sin pre-escalador(CK)
	LDI  R30,LOW(9)
	STS  129,R30
; 0000 002E     OCR1AH=(CuentasEnt-1)/256;
	MOVW R30,R16
	SBIW R30,1
	MOV  R30,R31
	LDI  R31,0
	STS  137,R30
; 0000 002F     OCR1AL=(CuentasEnt-1)%256;
	MOV  R30,R16
	SUBI R30,LOW(1)
	STS  136,R30
; 0000 0030 }
	LDD  R17,Y+1
	LDD  R16,Y+0
	ADIW R28,10
	RET
; .FEND
;
;void noTono()
; 0000 0033 {
; 0000 0034     TCCR1A=0;
; 0000 0035     TCCR1B=0;
; 0000 0036 }
;
;void SetupKeypad(){
; 0000 0038 void SetupKeypad(){
_SetupKeypad:
; .FSTART _SetupKeypad
; 0000 0039     #asm
; 0000 003A         SBI __keypad_port-1, __keypad_R1  //R1 de salida;
        SBI __keypad_port-1, __keypad_R1  //R1 de salida;
; 0000 003B         SBI __keypad_port-1, __keypad_R2  //R2 de salida;
        SBI __keypad_port-1, __keypad_R2  //R2 de salida;
; 0000 003C         SBI __keypad_port-1, __keypad_R3  //R3 de salida;
        SBI __keypad_port-1, __keypad_R3  //R3 de salida;
; 0000 003D         SBI __keypad_port-1, __keypad_R4  //R4 de salida;
        SBI __keypad_port-1, __keypad_R4  //R4 de salida;
; 0000 003E 

; 0000 003F         SBI __keypad_port, __keypad_C1  // Pull-up en C1
        SBI __keypad_port, __keypad_C1  // Pull-up en C1
; 0000 0040         SBI __keypad_port, __keypad_C2  // Pull-up en C2
        SBI __keypad_port, __keypad_C2  // Pull-up en C2
; 0000 0041         SBI __keypad_port, __keypad_C3  // Pull-up en C3
        SBI __keypad_port, __keypad_C3  // Pull-up en C3
; 0000 0042     #endasm
; 0000 0043 }
	RET
; .FEND
;
;#pragma warn-
;char ReadKeypad(){
; 0000 0046 char ReadKeypad(){
_ReadKeypad:
; .FSTART _ReadKeypad
; 0000 0047     #asm
; 0000 0048 

; 0000 0049     Inicio:
    Inicio:
; 0000 004A         SBIS __keypad_port-2,__keypad_C1
        SBIS __keypad_port-2,__keypad_C1
; 0000 004B         RJMP BarridoC1
        RJMP BarridoC1
; 0000 004C         SBIS __keypad_port-2,__keypad_C2
        SBIS __keypad_port-2,__keypad_C2
; 0000 004D         RJMP BarridoC2
        RJMP BarridoC2
; 0000 004E         SBIS __keypad_port-2,__keypad_C3
        SBIS __keypad_port-2,__keypad_C3
; 0000 004F         RJMP BarridoC3
        RJMP BarridoC3
; 0000 0050         CLR R30
        CLR R30
; 0000 0051         RJMP Fin
        RJMP Fin
; 0000 0052 

; 0000 0053     BarridoC1:
    BarridoC1:
; 0000 0054         LDI R30, '1'
        LDI R30, '1'
; 0000 0055         SBI __keypad_port,__keypad_R2   ;R2=1
        SBI __keypad_port,__keypad_R2   ;R2=1
; 0000 0056         SBI __keypad_port,__keypad_R3   ;R3=1
        SBI __keypad_port,__keypad_R3   ;R3=1
; 0000 0057         SBI __keypad_port,__keypad_R4   ;R4=1
        SBI __keypad_port,__keypad_R4   ;R4=1
; 0000 0058         RCALL Delay1us
        RCALL Delay1us
; 0000 0059         SBIS __keypad_port-2,__keypad_C1
        SBIS __keypad_port-2,__keypad_C1
; 0000 005A         RJMP Fin
        RJMP Fin
; 0000 005B         LDI R30, '4'
        LDI R30, '4'
; 0000 005C         SBI __keypad_port,__keypad_R1   ;R1=1
        SBI __keypad_port,__keypad_R1   ;R1=1
; 0000 005D         CBI __keypad_port,__keypad_R2   ;R2=0
        CBI __keypad_port,__keypad_R2   ;R2=0
; 0000 005E         RCALL Delay1us
        RCALL Delay1us
; 0000 005F         SBIS __keypad_port-2,__keypad_C1
        SBIS __keypad_port-2,__keypad_C1
; 0000 0060         RJMP Fin
        RJMP Fin
; 0000 0061         LDI R30, '7'
        LDI R30, '7'
; 0000 0062         SBI __keypad_port,__keypad_R2   ;R2=1
        SBI __keypad_port,__keypad_R2   ;R2=1
; 0000 0063         CBI __keypad_port,__keypad_R3   ;R3=0
        CBI __keypad_port,__keypad_R3   ;R3=0
; 0000 0064         RCALL Delay1us
        RCALL Delay1us
; 0000 0065         SBIS __keypad_port-2,__keypad_C1
        SBIS __keypad_port-2,__keypad_C1
; 0000 0066         RJMP Fin
        RJMP Fin
; 0000 0067         LDI R30, '*'
        LDI R30, '*'
; 0000 0068         SBI __keypad_port,__keypad_R3   ;R3=1
        SBI __keypad_port,__keypad_R3   ;R3=1
; 0000 0069         CBI __keypad_port,__keypad_R4   ;R4=0
        CBI __keypad_port,__keypad_R4   ;R4=0
; 0000 006A         RCALL Delay1us
        RCALL Delay1us
; 0000 006B         SBIS __keypad_port-2,__keypad_C1
        SBIS __keypad_port-2,__keypad_C1
; 0000 006C         RJMP Fin
        RJMP Fin
; 0000 006D         CLR R30
        CLR R30
; 0000 006E         RJMP Fin
        RJMP Fin
; 0000 006F 

; 0000 0070     BarridoC2:
    BarridoC2:
; 0000 0071         LDI R30, '2'
        LDI R30, '2'
; 0000 0072         SBI __keypad_port,__keypad_R2   ;R2=1
        SBI __keypad_port,__keypad_R2   ;R2=1
; 0000 0073         SBI __keypad_port,__keypad_R3   ;R3=1
        SBI __keypad_port,__keypad_R3   ;R3=1
; 0000 0074         SBI __keypad_port,__keypad_R4   ;R4=1
        SBI __keypad_port,__keypad_R4   ;R4=1
; 0000 0075         RCALL Delay1us
        RCALL Delay1us
; 0000 0076         SBIS __keypad_port-2,__keypad_C2
        SBIS __keypad_port-2,__keypad_C2
; 0000 0077         RJMP Fin
        RJMP Fin
; 0000 0078         LDI R30, '5'
        LDI R30, '5'
; 0000 0079         SBI __keypad_port,__keypad_R1   ;R1=1
        SBI __keypad_port,__keypad_R1   ;R1=1
; 0000 007A         CBI __keypad_port,__keypad_R2   ;R2=0
        CBI __keypad_port,__keypad_R2   ;R2=0
; 0000 007B         RCALL Delay1us
        RCALL Delay1us
; 0000 007C         SBIS __keypad_port-2,__keypad_C2
        SBIS __keypad_port-2,__keypad_C2
; 0000 007D         RJMP Fin
        RJMP Fin
; 0000 007E         LDI R30, '8'
        LDI R30, '8'
; 0000 007F         SBI __keypad_port,__keypad_R2   ;R2=1
        SBI __keypad_port,__keypad_R2   ;R2=1
; 0000 0080         CBI __keypad_port,__keypad_R3   ;R3=0
        CBI __keypad_port,__keypad_R3   ;R3=0
; 0000 0081         RCALL Delay1us
        RCALL Delay1us
; 0000 0082         SBIS __keypad_port-2,__keypad_C2
        SBIS __keypad_port-2,__keypad_C2
; 0000 0083         RJMP Fin
        RJMP Fin
; 0000 0084         LDI R30, '0'
        LDI R30, '0'
; 0000 0085         SBI __keypad_port,__keypad_R3   ;R3=1
        SBI __keypad_port,__keypad_R3   ;R3=1
; 0000 0086         CBI __keypad_port,__keypad_R4   ;R4=0
        CBI __keypad_port,__keypad_R4   ;R4=0
; 0000 0087         RCALL Delay1us
        RCALL Delay1us
; 0000 0088         SBIS __keypad_port-2,__keypad_C2
        SBIS __keypad_port-2,__keypad_C2
; 0000 0089         RJMP Fin
        RJMP Fin
; 0000 008A         CLR R30
        CLR R30
; 0000 008B         RJMP Fin
        RJMP Fin
; 0000 008C 

; 0000 008D     BarridoC3:
    BarridoC3:
; 0000 008E         LDI R30, '3'
        LDI R30, '3'
; 0000 008F         SBI __keypad_port,__keypad_R2   ;R2=1
        SBI __keypad_port,__keypad_R2   ;R2=1
; 0000 0090         SBI __keypad_port,__keypad_R3   ;R3=1
        SBI __keypad_port,__keypad_R3   ;R3=1
; 0000 0091         SBI __keypad_port,__keypad_R4   ;R4=1
        SBI __keypad_port,__keypad_R4   ;R4=1
; 0000 0092         RCALL Delay1us
        RCALL Delay1us
; 0000 0093         SBIS __keypad_port-2,__keypad_C3
        SBIS __keypad_port-2,__keypad_C3
; 0000 0094         RJMP Fin
        RJMP Fin
; 0000 0095         LDI R30, '6'
        LDI R30, '6'
; 0000 0096         SBI __keypad_port,__keypad_R1   ;R1=1
        SBI __keypad_port,__keypad_R1   ;R1=1
; 0000 0097         CBI __keypad_port,__keypad_R2   ;R2=0
        CBI __keypad_port,__keypad_R2   ;R2=0
; 0000 0098         RCALL Delay1us
        RCALL Delay1us
; 0000 0099         SBIS __keypad_port-2,__keypad_C3
        SBIS __keypad_port-2,__keypad_C3
; 0000 009A         RJMP Fin
        RJMP Fin
; 0000 009B         LDI R30, '9'
        LDI R30, '9'
; 0000 009C         SBI __keypad_port,__keypad_R2   ;R2=1
        SBI __keypad_port,__keypad_R2   ;R2=1
; 0000 009D         CBI __keypad_port,__keypad_R3   ;R3=0
        CBI __keypad_port,__keypad_R3   ;R3=0
; 0000 009E         RCALL Delay1us
        RCALL Delay1us
; 0000 009F         SBIS __keypad_port-2,__keypad_C3
        SBIS __keypad_port-2,__keypad_C3
; 0000 00A0         RJMP Fin
        RJMP Fin
; 0000 00A1         LDI R30, '#'
        LDI R30, '#'
; 0000 00A2         SBI __keypad_port,__keypad_R3   ;R3=1
        SBI __keypad_port,__keypad_R3   ;R3=1
; 0000 00A3         CBI __keypad_port,__keypad_R4   ;R4=0
        CBI __keypad_port,__keypad_R4   ;R4=0
; 0000 00A4         RCALL Delay1us
        RCALL Delay1us
; 0000 00A5         SBIS __keypad_port-2,__keypad_C3
        SBIS __keypad_port-2,__keypad_C3
; 0000 00A6         RJMP Fin
        RJMP Fin
; 0000 00A7         CLR R30
        CLR R30
; 0000 00A8         RJMP Fin
        RJMP Fin
; 0000 00A9 

; 0000 00AA     Delay1us:
    Delay1us:
; 0000 00AB         NOP
        NOP
; 0000 00AC         NOP
        NOP
; 0000 00AD         NOP
        NOP
; 0000 00AE         NOP
        NOP
; 0000 00AF         NOP
        NOP
; 0000 00B0         NOP
        NOP
; 0000 00B1         NOP
        NOP
; 0000 00B2         NOP
        NOP
; 0000 00B3         NOP
        NOP
; 0000 00B4         RET
        RET
; 0000 00B5 

; 0000 00B6     Fin:
    Fin:
; 0000 00B7         CBI __keypad_port,__keypad_R1
        CBI __keypad_port,__keypad_R1
; 0000 00B8         CBI __keypad_port,__keypad_R2
        CBI __keypad_port,__keypad_R2
; 0000 00B9         CBI __keypad_port,__keypad_R3
        CBI __keypad_port,__keypad_R3
; 0000 00BA         CBI __keypad_port,__keypad_R4
        CBI __keypad_port,__keypad_R4
; 0000 00BB     #endasm
; 0000 00BC }
	RET
; .FEND
;#pragma warn+
;
;char c;
;
;void main(void){
; 0000 00C1 void main(void){
_main:
; .FSTART _main
; 0000 00C2     SetupLCD();
	CALL _SetupLCD
; 0000 00C3     SetupKeypad();
	CALL _SetupKeypad
; 0000 00C4 
; 0000 00C5     while (1){
_0x26:
; 0000 00C6        do{
_0x2A:
; 0000 00C7            c=ReadKeypad();
	CALL _ReadKeypad
	STS  _c,R30
; 0000 00C8            tono(400.00);
	__GETD2N 0x43C80000
	CALL _tono
; 0000 00C9        }while(c==0);
	LDS  R30,_c
	CPI  R30,0
	BREQ _0x2A
; 0000 00CA 
; 0000 00CB        MoveCursor(0,0);
	LDI  R30,LOW(0)
	ST   -Y,R30
	LDI  R26,LOW(0)
	CALL _MoveCursor
; 0000 00CC        CharLCD(c);
	LDS  R26,_c
	CALL _CharLCD
; 0000 00CD     }
	RJMP _0x26
; 0000 00CE }
_0x2C:
	RJMP _0x2C
; .FEND

	.DSEG
_cursor:
	.BYTE 0x1
_c:
	.BYTE 0x1

	.CSEG
;OPTIMIZER ADDED SUBROUTINE, CALLED 5 TIMES, CODE SIZE REDUCTION:5 WORDS
SUBOPT_0x0:
	LDI  R26,LOW(2)
	LDI  R27,0
	JMP  _delay_ms

;OPTIMIZER ADDED SUBROUTINE, CALLED 3 TIMES, CODE SIZE REDUCTION:1 WORDS
SUBOPT_0x1:
	CALL _SendDataBitsLCD
	JMP  _PulseEn

;OPTIMIZER ADDED SUBROUTINE, CALLED 2 TIMES, CODE SIZE REDUCTION:3 WORDS
SUBOPT_0x2:
	LDD  R30,Y+1
	ANDI R30,LOW(0xF0)
	MOV  R16,R30
	SWAP R16
	ANDI R16,0xF
	MOV  R26,R16
	RJMP SUBOPT_0x1

;OPTIMIZER ADDED SUBROUTINE, CALLED 2 TIMES, CODE SIZE REDUCTION:3 WORDS
SUBOPT_0x3:
	LDD  R30,Y+1
	ANDI R30,LOW(0xF)
	MOV  R16,R30
	MOV  R26,R16
	CALL _SendDataBitsLCD
	RJMP SUBOPT_0x0


	.CSEG
_delay_ms:
	adiw r26,0
	breq __delay_ms1
__delay_ms0:
	__DELAY_USW 0x7D0
	wdr
	sbiw r26,1
	brne __delay_ms0
__delay_ms1:
	ret

__ROUND_REPACK:
	TST  R21
	BRPL __REPACK
	CPI  R21,0x80
	BRNE __ROUND_REPACK0
	SBRS R30,0
	RJMP __REPACK
__ROUND_REPACK0:
	ADIW R30,1
	ADC  R22,R25
	ADC  R23,R25
	BRVS __REPACK1

__REPACK:
	LDI  R21,0x80
	EOR  R21,R23
	BRNE __REPACK0
	PUSH R21
	RJMP __ZERORES
__REPACK0:
	CPI  R21,0xFF
	BREQ __REPACK1
	LSL  R22
	LSL  R0
	ROR  R21
	ROR  R22
	MOV  R23,R21
	RET
__REPACK1:
	PUSH R21
	TST  R0
	BRMI __REPACK2
	RJMP __MAXRES
__REPACK2:
	RJMP __MINRES

__UNPACK:
	LDI  R21,0x80
	MOV  R1,R25
	AND  R1,R21
	LSL  R24
	ROL  R25
	EOR  R25,R21
	LSL  R21
	ROR  R24

__UNPACK1:
	LDI  R21,0x80
	MOV  R0,R23
	AND  R0,R21
	LSL  R22
	ROL  R23
	EOR  R23,R21
	LSL  R21
	ROR  R22
	RET

__CFD1U:
	SET
	RJMP __CFD1U0
__CFD1:
	CLT
__CFD1U0:
	PUSH R21
	RCALL __UNPACK1
	CPI  R23,0x80
	BRLO __CFD10
	CPI  R23,0xFF
	BRCC __CFD10
	RJMP __ZERORES
__CFD10:
	LDI  R21,22
	SUB  R21,R23
	BRPL __CFD11
	NEG  R21
	CPI  R21,8
	BRTC __CFD19
	CPI  R21,9
__CFD19:
	BRLO __CFD17
	SER  R30
	SER  R31
	SER  R22
	LDI  R23,0x7F
	BLD  R23,7
	RJMP __CFD15
__CFD17:
	CLR  R23
	TST  R21
	BREQ __CFD15
__CFD18:
	LSL  R30
	ROL  R31
	ROL  R22
	ROL  R23
	DEC  R21
	BRNE __CFD18
	RJMP __CFD15
__CFD11:
	CLR  R23
__CFD12:
	CPI  R21,8
	BRLO __CFD13
	MOV  R30,R31
	MOV  R31,R22
	MOV  R22,R23
	SUBI R21,8
	RJMP __CFD12
__CFD13:
	TST  R21
	BREQ __CFD15
__CFD14:
	LSR  R23
	ROR  R22
	ROR  R31
	ROR  R30
	DEC  R21
	BRNE __CFD14
__CFD15:
	TST  R0
	BRPL __CFD16
	RCALL __ANEGD1
__CFD16:
	POP  R21
	RET

__CDF1U:
	SET
	RJMP __CDF1U0
__CDF1:
	CLT
__CDF1U0:
	SBIW R30,0
	SBCI R22,0
	SBCI R23,0
	BREQ __CDF10
	CLR  R0
	BRTS __CDF11
	TST  R23
	BRPL __CDF11
	COM  R0
	RCALL __ANEGD1
__CDF11:
	MOV  R1,R23
	LDI  R23,30
	TST  R1
__CDF12:
	BRMI __CDF13
	DEC  R23
	LSL  R30
	ROL  R31
	ROL  R22
	ROL  R1
	RJMP __CDF12
__CDF13:
	MOV  R30,R31
	MOV  R31,R22
	MOV  R22,R1
	PUSH R21
	RCALL __REPACK
	POP  R21
__CDF10:
	RET

__SWAPACC:
	PUSH R20
	MOVW R20,R30
	MOVW R30,R26
	MOVW R26,R20
	MOVW R20,R22
	MOVW R22,R24
	MOVW R24,R20
	MOV  R20,R0
	MOV  R0,R1
	MOV  R1,R20
	POP  R20
	RET

__UADD12:
	ADD  R30,R26
	ADC  R31,R27
	ADC  R22,R24
	RET

__NEGMAN1:
	COM  R30
	COM  R31
	COM  R22
	SUBI R30,-1
	SBCI R31,-1
	SBCI R22,-1
	RET

__SUBF12:
	PUSH R21
	RCALL __UNPACK
	CPI  R25,0x80
	BREQ __ADDF129
	LDI  R21,0x80
	EOR  R1,R21

__ADDF120:
	CPI  R23,0x80
	BREQ __ADDF128
__ADDF121:
	MOV  R21,R23
	SUB  R21,R25
	BRVS __ADDF1211
	BRPL __ADDF122
	RCALL __SWAPACC
	RJMP __ADDF121
__ADDF122:
	CPI  R21,24
	BRLO __ADDF123
	CLR  R26
	CLR  R27
	CLR  R24
__ADDF123:
	CPI  R21,8
	BRLO __ADDF124
	MOV  R26,R27
	MOV  R27,R24
	CLR  R24
	SUBI R21,8
	RJMP __ADDF123
__ADDF124:
	TST  R21
	BREQ __ADDF126
__ADDF125:
	LSR  R24
	ROR  R27
	ROR  R26
	DEC  R21
	BRNE __ADDF125
__ADDF126:
	MOV  R21,R0
	EOR  R21,R1
	BRMI __ADDF127
	RCALL __UADD12
	BRCC __ADDF129
	ROR  R22
	ROR  R31
	ROR  R30
	INC  R23
	BRVC __ADDF129
	RJMP __MAXRES
__ADDF128:
	RCALL __SWAPACC
__ADDF129:
	RCALL __REPACK
	POP  R21
	RET
__ADDF1211:
	BRCC __ADDF128
	RJMP __ADDF129
__ADDF127:
	SUB  R30,R26
	SBC  R31,R27
	SBC  R22,R24
	BREQ __ZERORES
	BRCC __ADDF1210
	COM  R0
	RCALL __NEGMAN1
__ADDF1210:
	TST  R22
	BRMI __ADDF129
	LSL  R30
	ROL  R31
	ROL  R22
	DEC  R23
	BRVC __ADDF1210

__ZERORES:
	CLR  R30
	CLR  R31
	CLR  R22
	CLR  R23
	POP  R21
	RET

__MINRES:
	SER  R30
	SER  R31
	LDI  R22,0x7F
	SER  R23
	POP  R21
	RET

__MAXRES:
	SER  R30
	SER  R31
	LDI  R22,0x7F
	LDI  R23,0x7F
	POP  R21
	RET

__DIVF21:
	PUSH R21
	RCALL __UNPACK
	CPI  R23,0x80
	BRNE __DIVF210
	TST  R1
__DIVF211:
	BRPL __DIVF219
	RJMP __MINRES
__DIVF219:
	RJMP __MAXRES
__DIVF210:
	CPI  R25,0x80
	BRNE __DIVF218
__DIVF217:
	RJMP __ZERORES
__DIVF218:
	EOR  R0,R1
	SEC
	SBC  R25,R23
	BRVC __DIVF216
	BRLT __DIVF217
	TST  R0
	RJMP __DIVF211
__DIVF216:
	MOV  R23,R25
	PUSH R17
	PUSH R18
	PUSH R19
	PUSH R20
	CLR  R1
	CLR  R17
	CLR  R18
	CLR  R19
	CLR  R20
	CLR  R21
	LDI  R25,32
__DIVF212:
	CP   R26,R30
	CPC  R27,R31
	CPC  R24,R22
	CPC  R20,R17
	BRLO __DIVF213
	SUB  R26,R30
	SBC  R27,R31
	SBC  R24,R22
	SBC  R20,R17
	SEC
	RJMP __DIVF214
__DIVF213:
	CLC
__DIVF214:
	ROL  R21
	ROL  R18
	ROL  R19
	ROL  R1
	ROL  R26
	ROL  R27
	ROL  R24
	ROL  R20
	DEC  R25
	BRNE __DIVF212
	MOVW R30,R18
	MOV  R22,R1
	POP  R20
	POP  R19
	POP  R18
	POP  R17
	TST  R22
	BRMI __DIVF215
	LSL  R21
	ROL  R30
	ROL  R31
	ROL  R22
	DEC  R23
	BRVS __DIVF217
__DIVF215:
	RCALL __ROUND_REPACK
	POP  R21
	RET

__CMPF12:
	TST  R25
	BRMI __CMPF120
	TST  R23
	BRMI __CMPF121
	CP   R25,R23
	BRLO __CMPF122
	BRNE __CMPF121
	CP   R26,R30
	CPC  R27,R31
	CPC  R24,R22
	BRLO __CMPF122
	BREQ __CMPF123
__CMPF121:
	CLZ
	CLC
	RET
__CMPF122:
	CLZ
	SEC
	RET
__CMPF123:
	SEZ
	CLC
	RET
__CMPF120:
	TST  R23
	BRPL __CMPF122
	CP   R25,R23
	BRLO __CMPF121
	BRNE __CMPF122
	CP   R30,R26
	CPC  R31,R27
	CPC  R22,R24
	BRLO __CMPF122
	BREQ __CMPF123
	RJMP __CMPF121

__ANEGD1:
	COM  R31
	COM  R22
	COM  R23
	NEG  R30
	SBCI R31,-1
	SBCI R22,-1
	SBCI R23,-1
	RET

__CWD1:
	MOV  R22,R31
	ADD  R22,R22
	SBC  R22,R22
	MOV  R23,R22
	RET

__PUTPARD2:
	ST   -Y,R25
	ST   -Y,R24
	ST   -Y,R27
	ST   -Y,R26
	RET

__SWAPD12:
	MOV  R1,R24
	MOV  R24,R22
	MOV  R22,R1
	MOV  R1,R25
	MOV  R25,R23
	MOV  R23,R1

__SWAPW12:
	MOV  R1,R27
	MOV  R27,R31
	MOV  R31,R1

__SWAPB12:
	MOV  R1,R26
	MOV  R26,R30
	MOV  R30,R1
	RET

__INITLOCB:
__INITLOCW:
	ADD  R26,R28
	ADC  R27,R29
__INITLOC0:
	LPM  R0,Z+
	ST   X+,R0
	DEC  R24
	BRNE __INITLOC0
	RET

;END OF CODE MARKER
__END_OF_CODE:
